; Function Attrs: nounwind uwtable
define dso_local void @nghttp2_bufs_reset(ptr noundef captures(none) %0) local_unnamed_addr #1 {
  %2 = getelementptr inbounds nuw i8, ptr %0, i64 48
  %3 = load i64, ptr %2, align 8, !tbaa !27
  %4 = getelementptr inbounds nuw i8, ptr %0, i64 56
  br label %5

5:                                                ; preds = %6, %1
  %.022.in = phi ptr [ %0, %1 ], [ %.022, %6 ]
  %.0 = phi i64 [ %3, %1 ], [ %14, %6 ]
  %.022 = load ptr, ptr %.022.in, align 8, !tbaa !31
  %.not = icmp eq ptr %.022, null
  br i1 %.not, label %.critedge, label %6

6:                                                ; preds = %5
  %7 = getelementptr inbounds nuw i8, ptr %.022, i64 8
  %8 = load ptr, ptr %7, align 8, !tbaa !10
  %9 = getelementptr inbounds nuw i8, ptr %.022, i64 40
  store ptr %8, ptr %9, align 8, !tbaa !12
  %10 = getelementptr inbounds nuw i8, ptr %.022, i64 32
  %11 = getelementptr inbounds nuw i8, ptr %.022, i64 24
  %12 = load i64, ptr %4, align 8, !tbaa !18
  %13 = getelementptr inbounds nuw i8, ptr %8, i64 %12
  store ptr %13, ptr %11, align 8, !tbaa !21
  store ptr %13, ptr %10, align 8, !tbaa !23
  %14 = add i64 %.0, -1
  %15 = icmp eq i64 %14, 0
  br i1 %15, label %16, label %5, !llvm.loop !44

16:                                               ; preds = %6
  %17 = load ptr, ptr %.022, align 8, !tbaa !28
  store ptr null, ptr %.022, align 8, !tbaa !28
  %.not2426 = icmp eq ptr %17, null
  br i1 %.not2426, label %._crit_edge, label %.lr.ph

.lr.ph:                                           ; preds = %16
  %18 = getelementptr inbounds nuw i8, ptr %0, i64 16
  br label %19

19:                                               ; preds = %.lr.ph, %19
  %.127 = phi ptr [ %17, %.lr.ph ], [ %20, %19 ]
  %20 = load ptr, ptr %.127, align 8, !tbaa !28
  %21 = load ptr, ptr %18, align 8, !tbaa !14
  %22 = getelementptr inbounds nuw i8, ptr %.127, i64 8
  %23 = load ptr, ptr %22, align 8, !tbaa !10
  tail call void @nghttp2_mem_free(ptr noundef %21, ptr noundef %23) #10
  store ptr null, ptr %22, align 8, !tbaa !10
  tail call void @nghttp2_mem_free(ptr noundef %21, ptr noundef nonnull %.127) #10
  %.not24 = icmp eq ptr %20, null
  br i1 %.not24, label %._crit_edge.loopexit, label %19, !llvm.loop !45

._crit_edge.loopexit:                             ; preds = %19
  %.pre = load i64, ptr %2, align 8, !tbaa !27
  br label %._crit_edge

._crit_edge:                                      ; preds = %._crit_edge.loopexit, %16
  %24 = phi i64 [ %.pre, %._crit_edge.loopexit ], [ %3, %16 ]
  %25 = getelementptr inbounds nuw i8, ptr %0, i64 40
  store i64 %24, ptr %25, align 8, !tbaa !25
  br label %.critedge

.critedge:                                        ; preds = %5, %._crit_edge
  %26 = load ptr, ptr %0, align 8, !tbaa !19
  %27 = getelementptr inbounds nuw i8, ptr %0, i64 8
  store ptr %26, ptr %27, align 8, !tbaa !20
  ret void
}